target datalayout = "e-m:e-p270:32:32-p271:32:32-p272:64:64-i64:64-i128:128-f80:128-n8:16:32:64-S128"
target triple = "x86_64-pc-linux-gnu"

%struct.ImVec2 = type { float, float }
%struct.ImRect = type { %struct.ImVec2, %struct.ImVec2 }
%struct.ImGuiWindow = type <{ ptr, ptr, i32, i32, i32, [4 x i8], ptr, %struct.ImVec2, %struct.ImVec2, %struct.ImVec2, %struct.ImVec2, %struct.ImVec2, %struct.ImVec2, %struct.ImVec2, float, float, float, float, float, float, float, float, float, float, i32, i32, i32, i32, %struct.ImVec2, %struct.ImVec2, %struct.ImVec2, %struct.ImVec2, %struct.ImVec2, %struct.ImVec2, i8, i8, i8, i8, i8, i8, i8, i8, i8, i8, i8, i8, i8, i8, i8, i8, i16, i16, i16, i16, i16, i8, i8, i8, [3 x i8], i32, i8, i8, i8, i8, i32, %struct.ImVec2, %struct.ImVec2, [4 x i8], %struct.ImVector, %struct.ImGuiWindowTempData, %struct.ImRect, %struct.ImRect, %struct.ImRect, %struct.ImRect, %struct.ImRect, %struct.ImRect, %struct.ImRect, %struct.ImVec2ih, %struct.ImVec2ih, i32, float, float, [4 x i8], %struct.ImGuiStorage, %struct.ImVector.3, float, i32, ptr, %struct.ImDrawList, ptr, ptr, ptr, ptr, ptr, ptr, ptr, ptr, [2 x i32], [2 x %struct.ImRect], [2 x %struct.ImVec2], i32, i32, i32, i8, [3 x i8] }>
%struct.ImVector = type { i32, i32, ptr }
%struct.ImGuiWindowTempData = type { %struct.ImVec2, %struct.ImVec2, %struct.ImVec2, %struct.ImVec2, %struct.ImVec2, %struct.ImVec2, %struct.ImVec2, float, float, i8, i8, %struct.ImVec1, %struct.ImVec1, %struct.ImVec1, %struct.ImVec2, i32, i16, i16, i8, i8, i8, i8, %struct.ImVec2, %struct.ImGuiMenuColumns, i32, i32, %struct.ImVector.0, ptr, ptr, i32, i32, i32, i32, float, float, %struct.ImVector.1, %struct.ImVector.1 }
%struct.ImVec1 = type { float }
%struct.ImGuiMenuColumns = type <{ i32, i32, i16, i16, i16, i16, i16, [4 x i16], [2 x i8] }>
%struct.ImVector.0 = type { i32, i32, ptr }
%struct.ImVector.1 = type { i32, i32, ptr }
%struct.ImVec2ih = type { i16, i16 }
%struct.ImGuiStorage = type { %struct.ImVector.2 }
%struct.ImVector.2 = type { i32, i32, ptr }
%struct.ImVector.3 = type { i32, i32, ptr }
%struct.ImDrawList = type { %struct.ImVector.4, %struct.ImVector.5, %struct.ImVector.6, i32, i32, ptr, ptr, ptr, %struct.ImVector.7, %struct.ImDrawCmdHeader, %struct.ImDrawListSplitter, %struct.ImVector.9, %struct.ImVector.10, float, ptr }
%struct.ImVector.4 = type { i32, i32, ptr }
%struct.ImVector.5 = type { i32, i32, ptr }
%struct.ImVector.6 = type { i32, i32, ptr }
%struct.ImVector.7 = type { i32, i32, ptr }
%struct.ImDrawCmdHeader = type <{ %struct.ImVec4, ptr, i32, [4 x i8] }>
%struct.ImVec4 = type { float, float, float, float }
%struct.ImDrawListSplitter = type { i32, i32, %struct.ImVector.8 }
%struct.ImVector.8 = type { i32, i32, ptr }
%struct.ImVector.9 = type { i32, i32, ptr }
%struct.ImVector.10 = type { i32, i32, ptr }

; Function Attrs: mustprogress nounwind uwtable
define linkonce_odr dso_local void @_ZN6ImVec2C2Eff(ptr noundef nonnull align 4 dereferenceable(8) %0, float noundef %1, float noundef %2) unnamed_addr #4 comdat align 2 {
  %4 = alloca ptr, align 8
  %5 = alloca float, align 4
  %6 = alloca float, align 4
  store ptr %0, ptr %4, align 8, !tbaa !174
  store float %1, ptr %5, align 4, !tbaa !66
  store float %2, ptr %6, align 4, !tbaa !66
  %7 = load ptr, ptr %4, align 8
  %8 = getelementptr inbounds nuw %struct.ImVec2, ptr %7, i32 0, i32 0
  %9 = load float, ptr %5, align 4, !tbaa !66
  store float %9, ptr %8, align 4, !tbaa !165
  %10 = getelementptr inbounds nuw %struct.ImVec2, ptr %7, i32 0, i32 1
  %11 = load float, ptr %6, align 4, !tbaa !66
  store float %11, ptr %10, align 4, !tbaa !164
  ret void
}

; Function Attrs: mustprogress uwtable
define linkonce_odr dso_local void @_ZN6ImRectC2Effff(ptr noundef nonnull align 4 dereferenceable(16) %0, float noundef %1, float noundef %2, float noundef %3, float noundef %4) unnamed_addr #8 comdat align 2 {
  %6 = alloca ptr, align 8
  %7 = alloca float, align 4
  %8 = alloca float, align 4
  %9 = alloca float, align 4
  %10 = alloca float, align 4
  store ptr %0, ptr %6, align 8, !tbaa !175
  store float %1, ptr %7, align 4, !tbaa !66
  store float %2, ptr %8, align 4, !tbaa !66
  store float %3, ptr %9, align 4, !tbaa !66
  store float %4, ptr %10, align 4, !tbaa !66
  %11 = load ptr, ptr %6, align 8
  %12 = getelementptr inbounds nuw %struct.ImRect, ptr %11, i32 0, i32 0
  %13 = load float, ptr %7, align 4, !tbaa !66
  %14 = load float, ptr %8, align 4, !tbaa !66
  call void @_ZN6ImVec2C2Eff(ptr noundef nonnull align 4 dereferenceable(8) %12, float noundef %13, float noundef %14)
  %15 = getelementptr inbounds nuw %struct.ImRect, ptr %11, i32 0, i32 1
  %16 = load float, ptr %9, align 4, !tbaa !66
  %17 = load float, ptr %10, align 4, !tbaa !66
  call void @_ZN6ImVec2C2Eff(ptr noundef nonnull align 4 dereferenceable(8) %15, float noundef %16, float noundef %17)
  ret void
}

; Function Attrs: inlinehint mustprogress nounwind uwtable
define internal noundef float @_ZL5ImMaxIfET_S0_S0_(float noundef %0, float noundef %1) #2 {
  %3 = alloca float, align 4
  %4 = alloca float, align 4
  store float %0, ptr %3, align 4, !tbaa !66
  store float %1, ptr %4, align 4, !tbaa !66
  %5 = load float, ptr %3, align 4, !tbaa !66
  %6 = load float, ptr %4, align 4, !tbaa !66
  %7 = fcmp oge float %5, %6
  br i1 %7, label %8, label %10

8:                                                ; preds = %2
  %9 = load float, ptr %3, align 4, !tbaa !66
  br label %12

10:                                               ; preds = %2
  %11 = load float, ptr %4, align 4, !tbaa !66
  br label %12

12:                                               ; preds = %10, %8
  %13 = phi float [ %9, %8 ], [ %11, %10 ]
  ret float %13
}

; Function Attrs: mustprogress nounwind uwtable
define linkonce_odr dso_local noundef nonnull align 4 dereferenceable(4) ptr @_ZN6ImVec2ixEm(ptr noundef nonnull align 4 dereferenceable(8) %0, i64 noundef %1) #4 comdat align 2 {
  %3 = alloca ptr, align 8
  %4 = alloca i64, align 8
  store ptr %0, ptr %3, align 8, !tbaa !174
  store i64 %1, ptr %4, align 8, !tbaa !241
  %5 = load ptr, ptr %3, align 8
  %6 = load i64, ptr %4, align 8, !tbaa !241
  %7 = getelementptr inbounds nuw float, ptr %5, i64 %6
  ret ptr %7
}

; Function Attrs: mustprogress uwtable
define linkonce_odr dso_local { <2 x float>, <2 x float> } @_ZNK11ImGuiWindow4RectEv(ptr noundef nonnull align 8 dereferenceable(1029) %0) #8 comdat align 2 {
  %2 = alloca %struct.ImRect, align 4
  %3 = alloca ptr, align 8
  store ptr %0, ptr %3, align 8, !tbaa !11
  %4 = load ptr, ptr %3, align 8
  %5 = getelementptr inbounds nuw %struct.ImGuiWindow, ptr %4, i32 0, i32 7
  %6 = getelementptr inbounds nuw %struct.ImVec2, ptr %5, i32 0, i32 0
  %7 = load float, ptr %6, align 8, !tbaa !237
  %8 = getelementptr inbounds nuw %struct.ImGuiWindow, ptr %4, i32 0, i32 7
  %9 = getelementptr inbounds nuw %struct.ImVec2, ptr %8, i32 0, i32 1
  %10 = load float, ptr %9, align 4, !tbaa !238
  %11 = getelementptr inbounds nuw %struct.ImGuiWindow, ptr %4, i32 0, i32 7
  %12 = getelementptr inbounds nuw %struct.ImVec2, ptr %11, i32 0, i32 0
  %13 = load float, ptr %12, align 8, !tbaa !237
  %14 = getelementptr inbounds nuw %struct.ImGuiWindow, ptr %4, i32 0, i32 8
  %15 = getelementptr inbounds nuw %struct.ImVec2, ptr %14, i32 0, i32 0
  %16 = load float, ptr %15, align 8, !tbaa !239
  %17 = fadd float %13, %16
  %18 = getelementptr inbounds nuw %struct.ImGuiWindow, ptr %4, i32 0, i32 7
  %19 = getelementptr inbounds nuw %struct.ImVec2, ptr %18, i32 0, i32 1
  %20 = load float, ptr %19, align 4, !tbaa !238
  %21 = getelementptr inbounds nuw %struct.ImGuiWindow, ptr %4, i32 0, i32 8
  %22 = getelementptr inbounds nuw %struct.ImVec2, ptr %21, i32 0, i32 1
  %23 = load float, ptr %22, align 4, !tbaa !240
  %24 = fadd float %20, %23
  call void @_ZN6ImRectC2Effff(ptr noundef nonnull align 4 dereferenceable(16) %2, float noundef %7, float noundef %10, float noundef %17, float noundef %24)
  %25 = load { <2 x float>, <2 x float> }, ptr %2, align 4
  ret { <2 x float>, <2 x float> } %25
}

; Function Attrs: mustprogress uwtable
define dso_local { <2 x float>, <2 x float> } @_ZN5ImGui22GetWindowScrollbarRectEP11ImGuiWindow9ImGuiAxis(ptr noundef %0, i32 noundef %1) #0 {
  %3 = alloca %struct.ImRect, align 4
  %4 = alloca ptr, align 8
  %5 = alloca i32, align 4
  %6 = alloca %struct.ImRect, align 4
  %7 = alloca %struct.ImRect, align 4
  %8 = alloca float, align 4
  %9 = alloca float, align 4
  %10 = alloca i32, align 4
  store ptr %0, ptr %4, align 8, !tbaa !11
  store i32 %1, ptr %5, align 4, !tbaa !234
  call void @llvm.lifetime.start.p0(i64 16, ptr %6) #17
  %11 = load ptr, ptr %4, align 8, !tbaa !11
  %12 = call { <2 x float>, <2 x float> } @_ZNK11ImGuiWindow4RectEv(ptr noundef nonnull align 8 dereferenceable(1029) %11)
  %13 = getelementptr inbounds nuw { <2 x float>, <2 x float> }, ptr %6, i32 0, i32 0
  %14 = extractvalue { <2 x float>, <2 x float> } %12, 0
  store <2 x float> %14, ptr %13, align 4
  %15 = getelementptr inbounds nuw { <2 x float>, <2 x float> }, ptr %6, i32 0, i32 1
  %16 = extractvalue { <2 x float>, <2 x float> } %12, 1
  store <2 x float> %16, ptr %15, align 4
  call void @llvm.lifetime.start.p0(i64 16, ptr %7) #17
  %17 = load ptr, ptr %4, align 8, !tbaa !11
  %18 = getelementptr inbounds nuw %struct.ImGuiWindow, ptr %17, i32 0, i32 71
  call void @llvm.memcpy.p0.p0.i64(ptr align 4 %7, ptr align 8 %18, i64 16, i1 false), !tbaa.struct !231
  call void @llvm.lifetime.start.p0(i64 4, ptr %8) #17
  %19 = load ptr, ptr %4, align 8, !tbaa !11
  %20 = getelementptr inbounds nuw %struct.ImGuiWindow, ptr %19, i32 0, i32 15
  %21 = load float, ptr %20, align 4, !tbaa !236
  store float %21, ptr %8, align 4, !tbaa !66
  call void @llvm.lifetime.start.p0(i64 4, ptr %9) #17
  %22 = load ptr, ptr %4, align 8, !tbaa !11
  %23 = getelementptr inbounds nuw %struct.ImGuiWindow, ptr %22, i32 0, i32 33
  %24 = load i32, ptr %5, align 4, !tbaa !234
  %25 = xor i32 %24, 1
  %26 = sext i32 %25 to i64
  %27 = call noundef nonnull align 4 dereferenceable(4) ptr @_ZN6ImVec2ixEm(ptr noundef nonnull align 4 dereferenceable(8) %23, i64 noundef %26)
  %28 = load float, ptr %27, align 4, !tbaa !66
  store float %28, ptr %9, align 4, !tbaa !66
  %29 = load i32, ptr %5, align 4, !tbaa !234
  %30 = icmp eq i32 %29, 0
  br i1 %30, label %31, label %56

31:                                               ; preds = %2
  %32 = getelementptr inbounds nuw %struct.ImRect, ptr %7, i32 0, i32 0
  %33 = getelementptr inbounds nuw %struct.ImVec2, ptr %32, i32 0, i32 0
  %34 = load float, ptr %33, align 4, !tbaa !232
  %35 = getelementptr inbounds nuw %struct.ImRect, ptr %6, i32 0, i32 0
  %36 = getelementptr inbounds nuw %struct.ImVec2, ptr %35, i32 0, i32 1
  %37 = load float, ptr %36, align 4, !tbaa !168
  %38 = getelementptr inbounds nuw %struct.ImRect, ptr %6, i32 0, i32 1
  %39 = getelementptr inbounds nuw %struct.ImVec2, ptr %38, i32 0, i32 1
  %40 = load float, ptr %39, align 4, !tbaa !169
  %41 = load float, ptr %8, align 4, !tbaa !66
  %42 = fsub float %40, %41
  %43 = load float, ptr %9, align 4, !tbaa !66
  %44 = fsub float %42, %43
  %45 = call noundef float @_ZL5ImMaxIfET_S0_S0_(float noundef %37, float noundef %44)
  %46 = getelementptr inbounds nuw %struct.ImRect, ptr %7, i32 0, i32 1
  %47 = getelementptr inbounds nuw %struct.ImVec2, ptr %46, i32 0, i32 0
  %48 = load float, ptr %47, align 4, !tbaa !184
  %49 = load float, ptr %8, align 4, !tbaa !66
  %50 = fsub float %48, %49
  %51 = getelementptr inbounds nuw %struct.ImRect, ptr %6, i32 0, i32 1
  %52 = getelementptr inbounds nuw %struct.ImVec2, ptr %51, i32 0, i32 1
  %53 = load float, ptr %52, align 4, !tbaa !169
  %54 = load float, ptr %8, align 4, !tbaa !66
  %55 = fsub float %53, %54
  call void @_ZN6ImRectC2Effff(ptr noundef nonnull align 4 dereferenceable(16) %3, float noundef %34, float noundef %45, float noundef %50, float noundef %55)
  store i32 1, ptr %10, align 4
  br label %81

56:                                               ; preds = %2
  %57 = getelementptr inbounds nuw %struct.ImRect, ptr %6, i32 0, i32 0
  %58 = getelementptr inbounds nuw %struct.ImVec2, ptr %57, i32 0, i32 0
  %59 = load float, ptr %58, align 4, !tbaa !232
  %60 = getelementptr inbounds nuw %struct.ImRect, ptr %6, i32 0, i32 1
  %61 = getelementptr inbounds nuw %struct.ImVec2, ptr %60, i32 0, i32 0
  %62 = load float, ptr %61, align 4, !tbaa !184
  %63 = load float, ptr %8, align 4, !tbaa !66
  %64 = fsub float %62, %63
  %65 = load float, ptr %9, align 4, !tbaa !66
  %66 = fsub float %64, %65
  %67 = call noundef float @_ZL5ImMaxIfET_S0_S0_(float noundef %59, float noundef %66)
  %68 = getelementptr inbounds nuw %struct.ImRect, ptr %7, i32 0, i32 0
  %69 = getelementptr inbounds nuw %struct.ImVec2, ptr %68, i32 0, i32 1
  %70 = load float, ptr %69, align 4, !tbaa !168
  %71 = getelementptr inbounds nuw %struct.ImRect, ptr %6, i32 0, i32 1
  %72 = getelementptr inbounds nuw %struct.ImVec2, ptr %71, i32 0, i32 0
  %73 = load float, ptr %72, align 4, !tbaa !184
  %74 = load float, ptr %8, align 4, !tbaa !66
  %75 = fsub float %73, %74
  %76 = getelementptr inbounds nuw %struct.ImRect, ptr %7, i32 0, i32 1
  %77 = getelementptr inbounds nuw %struct.ImVec2, ptr %76, i32 0, i32 1
  %78 = load float, ptr %77, align 4, !tbaa !169
  %79 = load float, ptr %8, align 4, !tbaa !66
  %80 = fsub float %78, %79
  call void @_ZN6ImRectC2Effff(ptr noundef nonnull align 4 dereferenceable(16) %3, float noundef %67, float noundef %70, float noundef %75, float noundef %80)
  store i32 1, ptr %10, align 4
  br label %81

81:                                               ; preds = %56, %31
  call void @llvm.lifetime.end.p0(i64 4, ptr %9) #17
  call void @llvm.lifetime.end.p0(i64 4, ptr %8) #17
  call void @llvm.lifetime.end.p0(i64 16, ptr %7) #17
  call void @llvm.lifetime.end.p0(i64 16, ptr %6) #17
  %82 = load { <2 x float>, <2 x float> }, ptr %3, align 4
  ret { <2 x float>, <2 x float> } %82
}