; Function Attrs: mustprogress nofree norecurse nosync nounwind willreturn memory(argmem: read) uwtable
define dso_local { <2 x float>, <2 x float> } @_ZN5ImGui22GetWindowScrollbarRectEP11ImGuiWindow9ImGuiAxis(ptr noundef readonly captures(none) %0, i32 noundef %1) local_unnamed_addr #7 {
  %3 = getelementptr inbounds nuw i8, ptr %0, i64 100
  %4 = load float, ptr %3, align 4, !tbaa !216
  %5 = getelementptr inbounds nuw i8, ptr %0, i64 192
  %6 = xor i32 %1, 1
  %7 = sext i32 %6 to i64
  %8 = getelementptr inbounds nuw float, ptr %5, i64 %7
  %9 = load float, ptr %8, align 4, !tbaa !190
  %10 = icmp eq i32 %1, 0
  br i1 %10, label %11, label %23

11:                                               ; preds = %2
  %.sroa.5.0..sroa_idx = getelementptr inbounds nuw i8, ptr %0, i64 536
  %.sroa.5.0.copyload = load float, ptr %.sroa.5.0..sroa_idx, align 8, !tbaa !190
  %12 = getelementptr inbounds nuw i8, ptr %0, i64 528
  %.sroa.0.0.copyload = load float, ptr %12, align 8, !tbaa !190
  %13 = getelementptr inbounds nuw i8, ptr %0, i64 44
  %14 = load float, ptr %13, align 4, !tbaa !217
  %15 = getelementptr inbounds nuw i8, ptr %0, i64 52
  %16 = load float, ptr %15, align 4, !tbaa !218
  %17 = fadd float %14, %16
  %18 = fsub float %17, %4
  %19 = fsub float %18, %9
  %20 = fcmp oge float %14, %19
  %21 = select i1 %20, float %14, float %19
  %22 = fsub float %.sroa.5.0.copyload, %4
  br label %34

23:                                               ; preds = %2
  %.sroa.6.0..sroa_idx = getelementptr inbounds nuw i8, ptr %0, i64 540
  %.sroa.6.0.copyload = load float, ptr %.sroa.6.0..sroa_idx, align 4, !tbaa !190
  %.sroa.4.0..sroa_idx = getelementptr inbounds nuw i8, ptr %0, i64 532
  %.sroa.4.0.copyload = load float, ptr %.sroa.4.0..sroa_idx, align 4, !tbaa !190
  %24 = getelementptr inbounds nuw i8, ptr %0, i64 40
  %25 = load float, ptr %24, align 8, !tbaa !219
  %26 = getelementptr inbounds nuw i8, ptr %0, i64 48
  %27 = load float, ptr %26, align 8, !tbaa !220
  %28 = fadd float %25, %27
  %29 = fsub float %28, %4
  %30 = fsub float %29, %9
  %31 = fcmp oge float %25, %30
  %32 = select i1 %31, float %25, float %30
  %33 = fsub float %.sroa.6.0.copyload, %4
  br label %34

34:                                               ; preds = %23, %11
  %.sink30 = phi float [ %32, %23 ], [ %.sroa.0.0.copyload, %11 ]
  %.sroa.4.0.copyload.sink = phi float [ %.sroa.4.0.copyload, %23 ], [ %21, %11 ]
  %.sink29 = phi float [ %29, %23 ], [ %22, %11 ]
  %.sink = phi float [ %33, %23 ], [ %18, %11 ]
  %.sroa.0.0.vec.insert21 = insertelement <2 x float> poison, float %.sink30, i64 0
  %.sroa.0.4.vec.insert23 = insertelement <2 x float> %.sroa.0.0.vec.insert21, float %.sroa.4.0.copyload.sink, i64 1
  %.sroa.5.8.vec.insert26 = insertelement <2 x float> poison, float %.sink29, i64 0
  %.sroa.5.12.vec.insert28 = insertelement <2 x float> %.sroa.5.8.vec.insert26, float %.sink, i64 1
  %.fca.0.insert = insertvalue { <2 x float>, <2 x float> } poison, <2 x float> %.sroa.0.4.vec.insert23, 0
  %.fca.1.insert = insertvalue { <2 x float>, <2 x float> } %.fca.0.insert, <2 x float> %.sroa.5.12.vec.insert28, 1
  ret { <2 x float>, <2 x float> } %.fca.1.insert
}